target datalayout = "e-m:e-p270:32:32-p271:32:32-p272:64:64-i64:64-i128:128-f80:128-n8:16:32:64-S128"
target triple = "x86_64-pc-linux-gnu"

%"struct.icu_77::ChineseCalendar::Setting" = type { i32, ptr, ptr, ptr }
%"class.icu_77::LocalPointer.0" = type { %"class.icu_77::LocalPointerBase.1" }
%"class.icu_77::LocalPointerBase.1" = type { ptr }

; Function Attrs: mustprogress nounwind uwtable
define linkonce_odr void @_ZN6icu_7716LocalPointerBaseINS_15ChineseCalendarEED2Ev(ptr noundef nonnull align 8 dereferenceable(8) %0) unnamed_addr #3 comdat align 2 {
  %2 = alloca ptr, align 8
  store ptr %0, ptr %2, align 8, !tbaa !77
  ret void
}

; Function Attrs: inlinehint mustprogress nounwind uwtable
define internal noundef signext i8 @_ZL9U_SUCCESS10UErrorCode(i32 noundef %0) #4 {
  %2 = alloca i32, align 4
  store i32 %0, ptr %2, align 4, !tbaa !30
  %3 = load i32, ptr %2, align 4, !tbaa !30
  %4 = icmp sle i32 %3, 0
  %5 = zext i1 %4 to i8
  ret i8 %5
}

; Function Attrs: mustprogress nounwind uwtable
define linkonce_odr void @_ZN6icu_7716LocalPointerBaseINS_15ChineseCalendarEEC2EPS1_(ptr noundef nonnull align 8 dereferenceable(8) %0, ptr noundef %1) unnamed_addr #3 comdat align 2 {
  %3 = alloca ptr, align 8
  %4 = alloca ptr, align 8
  store ptr %0, ptr %3, align 8, !tbaa !77
  store ptr %1, ptr %4, align 8, !tbaa !3
  %5 = load ptr, ptr %3, align 8
  %6 = getelementptr inbounds nuw %"class.icu_77::LocalPointerBase.1", ptr %5, i32 0, i32 0
  %7 = load ptr, ptr %4, align 8, !tbaa !3
  store ptr %7, ptr %6, align 8, !tbaa !79
  ret void
}

; Function Attrs: mustprogress nounwind uwtable
define linkonce_odr void @_ZN6icu_7712LocalPointerINS_15ChineseCalendarEED2Ev(ptr noundef nonnull align 8 dereferenceable(8) %0) unnamed_addr #3 comdat align 2 {
  %2 = alloca ptr, align 8
  store ptr %0, ptr %2, align 8, !tbaa !75
  %3 = load ptr, ptr %2, align 8
  %4 = getelementptr inbounds nuw %"class.icu_77::LocalPointerBase.1", ptr %3, i32 0, i32 0
  %5 = load ptr, ptr %4, align 8, !tbaa !79
  %6 = icmp eq ptr %5, null
  br i1 %6, label %11, label %7

7:                                                ; preds = %1
  %8 = load ptr, ptr %5, align 8, !tbaa !11
  %9 = getelementptr inbounds ptr, ptr %8, i64 1
  %10 = load ptr, ptr %9, align 8
  call void %10(ptr noundef nonnull align 8 dereferenceable(193) %5) #13
  br label %11

11:                                               ; preds = %7, %1
  call void @_ZN6icu_7716LocalPointerBaseINS_15ChineseCalendarEED2Ev(ptr noundef nonnull align 8 dereferenceable(8) %3) #13
  ret void
}

; Function Attrs: mustprogress uwtable
define noundef i32 @_ZNK6icu_7715ChineseCalendar28handleGetMonthLengthWithLeapEiibR10UErrorCode(ptr noundef nonnull align 8 dereferenceable(193) %0, i32 noundef %1, i32 noundef %2, i1 noundef zeroext %3, ptr noundef nonnull align 4 dereferenceable(4) %4) #0 align 2 {
  %6 = alloca i32, align 4
  %7 = alloca ptr, align 8
  %8 = alloca i32, align 4
  %9 = alloca i32, align 4
  %10 = alloca i8, align 1
  %11 = alloca ptr, align 8
  %12 = alloca %"struct.icu_77::ChineseCalendar::Setting", align 8
  %13 = alloca i32, align 4
  %14 = alloca i32, align 4
  %15 = alloca i32, align 4
  store ptr %0, ptr %7, align 8, !tbaa !3
  store i32 %1, ptr %8, align 4, !tbaa !29
  store i32 %2, ptr %9, align 4, !tbaa !29
  %16 = zext i1 %3 to i8
  store i8 %16, ptr %10, align 1, !tbaa !39
  store ptr %4, ptr %11, align 8, !tbaa !10
  %17 = load ptr, ptr %7, align 8
  call void @llvm.lifetime.start.p0(i64 32, ptr %12) #13
  %18 = load ptr, ptr %11, align 8, !tbaa !10
  %19 = load ptr, ptr %17, align 8, !tbaa !11
  %20 = getelementptr inbounds ptr, ptr %19, i64 57
  %21 = load ptr, ptr %20, align 8
  call void %21(ptr dead_on_unwind writable sret(%"struct.icu_77::ChineseCalendar::Setting") align 8 %12, ptr noundef nonnull align 8 dereferenceable(193) %17, ptr noundef nonnull align 4 dereferenceable(4) %18)
  %22 = load ptr, ptr %11, align 8, !tbaa !10
  %23 = load i32, ptr %22, align 4, !tbaa !30
  %24 = call noundef signext i8 @_ZL9U_FAILURE10UErrorCode(i32 noundef %23)
  %25 = icmp ne i8 %24, 0
  br i1 %25, label %26, label %27

26:                                               ; preds = %5
  store i32 0, ptr %6, align 4
  store i32 1, ptr %13, align 4
  br label %55

27:                                               ; preds = %5
  call void @llvm.lifetime.start.p0(i64 4, ptr %14) #13
  %28 = load i32, ptr %8, align 4, !tbaa !29
  %29 = load i32, ptr %9, align 4, !tbaa !29
  %30 = load i8, ptr %10, align 1, !tbaa !39, !range !40, !noundef !41
  %31 = trunc i8 %30 to i1
  %32 = load ptr, ptr %11, align 8, !tbaa !10
  %33 = call noundef i64 @_ZNK6icu_7715ChineseCalendar31handleComputeMonthStartWithLeapEiibR10UErrorCode(ptr noundef nonnull align 8 dereferenceable(193) %17, i32 noundef %28, i32 noundef %29, i1 noundef zeroext %31, ptr noundef nonnull align 4 dereferenceable(4) %32)
  %34 = trunc i64 %33 to i32
  store i32 %34, ptr %14, align 4, !tbaa !29
  %35 = load ptr, ptr %11, align 8, !tbaa !10
  %36 = load i32, ptr %35, align 4, !tbaa !30
  %37 = call noundef signext i8 @_ZL9U_FAILURE10UErrorCode(i32 noundef %36)
  %38 = icmp ne i8 %37, 0
  br i1 %38, label %39, label %40

39:                                               ; preds = %27
  store i32 0, ptr %6, align 4
  store i32 1, ptr %13, align 4
  br label %54

40:                                               ; preds = %27
  %41 = load i32, ptr %14, align 4, !tbaa !29
  %42 = sub nsw i32 %41, 2440588
  %43 = add nsw i32 %42, 1
  store i32 %43, ptr %14, align 4, !tbaa !29
  call void @llvm.lifetime.start.p0(i64 4, ptr %15) #13
  %44 = getelementptr inbounds nuw %"struct.icu_77::ChineseCalendar::Setting", ptr %12, i32 0, i32 1
  %45 = load ptr, ptr %44, align 8, !tbaa !42
  %46 = load i32, ptr %14, align 4, !tbaa !29
  %47 = add nsw i32 %46, 25
  %48 = sitofp i32 %47 to double
  %49 = load ptr, ptr %11, align 8, !tbaa !10
  %50 = call noundef i32 @_ZN6icu_7712_GLOBAL__N_111newMoonNearEPKNS_8TimeZoneEdaR10UErrorCode(ptr noundef %45, double noundef %48, i8 noundef signext 1, ptr noundef nonnull align 4 dereferenceable(4) %49)
  store i32 %50, ptr %15, align 4, !tbaa !29
  %51 = load i32, ptr %15, align 4, !tbaa !29
  %52 = load i32, ptr %14, align 4, !tbaa !29
  %53 = sub nsw i32 %51, %52
  store i32 %53, ptr %6, align 4
  store i32 1, ptr %13, align 4
  call void @llvm.lifetime.end.p0(i64 4, ptr %15) #13
  br label %54

54:                                               ; preds = %40, %39
  call void @llvm.lifetime.end.p0(i64 4, ptr %14) #13
  br label %55

55:                                               ; preds = %54, %26
  call void @llvm.lifetime.end.p0(i64 32, ptr %12) #13
  %56 = load i32, ptr %6, align 4
  ret i32 %56
}

; Function Attrs: mustprogress nounwind uwtable
define linkonce_odr noundef ptr @_ZNK6icu_7716LocalPointerBaseINS_15ChineseCalendarEEptEv(ptr noundef nonnull align 8 dereferenceable(8) %0) #3 comdat align 2 {
  %2 = alloca ptr, align 8
  store ptr %0, ptr %2, align 8, !tbaa !77
  %3 = load ptr, ptr %2, align 8
  %4 = getelementptr inbounds nuw %"class.icu_77::LocalPointerBase.1", ptr %3, i32 0, i32 0
  %5 = load ptr, ptr %4, align 8, !tbaa !79
  ret ptr %5
}

; Function Attrs: mustprogress uwtable
define linkonce_odr void @_ZN6icu_7712LocalPointerINS_15ChineseCalendarEEC2EPS1_R10UErrorCode(ptr noundef nonnull align 8 dereferenceable(8) %0, ptr noundef %1, ptr noundef nonnull align 4 dereferenceable(4) %2) unnamed_addr #0 comdat align 2 personality ptr @__gxx_personality_v0 {
  %4 = alloca ptr, align 8
  %5 = alloca ptr, align 8
  %6 = alloca ptr, align 8
  %7 = alloca ptr, align 8
  %8 = alloca i32, align 4
  store ptr %0, ptr %4, align 8, !tbaa !75
  store ptr %1, ptr %5, align 8, !tbaa !3
  store ptr %2, ptr %6, align 8, !tbaa !10
  %9 = load ptr, ptr %4, align 8
  %10 = load ptr, ptr %5, align 8, !tbaa !3
  call void @_ZN6icu_7716LocalPointerBaseINS_15ChineseCalendarEEC2EPS1_(ptr noundef nonnull align 8 dereferenceable(8) %9, ptr noundef %10)
  %11 = load ptr, ptr %5, align 8, !tbaa !3
  %12 = icmp eq ptr %11, null
  br i1 %12, label %13, label %25

13:                                               ; preds = %3
  %14 = load ptr, ptr %6, align 8, !tbaa !10
  %15 = load i32, ptr %14, align 4, !tbaa !30
  %16 = invoke noundef signext i8 @_ZL9U_SUCCESS10UErrorCode(i32 noundef %15)
          to label %17 unwind label %21

17:                                               ; preds = %13
  %18 = icmp ne i8 %16, 0
  br i1 %18, label %19, label %25

19:                                               ; preds = %17
  %20 = load ptr, ptr %6, align 8, !tbaa !10
  store i32 7, ptr %20, align 4, !tbaa !30
  br label %25

21:                                               ; preds = %13
  %22 = landingpad { ptr, i32 }
          cleanup
  %23 = extractvalue { ptr, i32 } %22, 0
  store ptr %23, ptr %7, align 8
  %24 = extractvalue { ptr, i32 } %22, 1
  store i32 %24, ptr %8, align 4
  call void @_ZN6icu_7716LocalPointerBaseINS_15ChineseCalendarEED2Ev(ptr noundef nonnull align 8 dereferenceable(8) %9) #13
  br label %26

25:                                               ; preds = %19, %17, %3
  ret void

26:                                               ; preds = %21
  %27 = load ptr, ptr %7, align 8
  %28 = load i32, ptr %8, align 4
  %29 = insertvalue { ptr, i32 } poison, ptr %27, 0
  %30 = insertvalue { ptr, i32 } %29, i32 %28, 1
  resume { ptr, i32 } %30
}

; Function Attrs: inlinehint mustprogress nounwind uwtable
define internal noundef signext i8 @_ZL9U_FAILURE10UErrorCode(i32 noundef %0) #4 {
  %2 = alloca i32, align 4
  store i32 %0, ptr %2, align 4, !tbaa !30
  %3 = load i32, ptr %2, align 4, !tbaa !30
  %4 = icmp sgt i32 %3, 0
  %5 = zext i1 %4 to i8
  ret i8 %5
}

; Function Attrs: mustprogress uwtable
define noundef i32 @_ZNK6icu_7715ChineseCalendar16getActualMaximumE19UCalendarDateFieldsR10UErrorCode(ptr noundef nonnull align 8 dereferenceable(193) %0, i32 noundef %1, ptr noundef nonnull align 4 dereferenceable(4) %2) unnamed_addr #0 align 2 personality ptr @__gxx_personality_v0 {
  %4 = alloca i32, align 4
  %5 = alloca ptr, align 8
  %6 = alloca i32, align 4
  %7 = alloca ptr, align 8
  %8 = alloca %"class.icu_77::LocalPointer.0", align 8
  %9 = alloca ptr, align 8
  %10 = alloca i32, align 4
  %11 = alloca i32, align 4
  %12 = alloca i32, align 4
  %13 = alloca i32, align 4
  %14 = alloca i8, align 1
  store ptr %0, ptr %5, align 8, !tbaa !3
  store i32 %1, ptr %6, align 4, !tbaa !25
  store ptr %2, ptr %7, align 8, !tbaa !10
  %15 = load ptr, ptr %5, align 8
  %16 = load ptr, ptr %7, align 8, !tbaa !10
  %17 = load i32, ptr %16, align 4, !tbaa !30
  %18 = call noundef signext i8 @_ZL9U_FAILURE10UErrorCode(i32 noundef %17)
  %19 = icmp ne i8 %18, 0
  br i1 %19, label %20, label %21

20:                                               ; preds = %3
  store i32 0, ptr %4, align 4
  br label %96

21:                                               ; preds = %3
  %22 = load i32, ptr %6, align 4, !tbaa !25
  %23 = icmp eq i32 %22, 5
  br i1 %23, label %24, label %92

24:                                               ; preds = %21
  call void @llvm.lifetime.start.p0(i64 8, ptr %8) #13
  %25 = load ptr, ptr %15, align 8, !tbaa !11
  %26 = getelementptr inbounds ptr, ptr %25, i64 3
  %27 = load ptr, ptr %26, align 8
  %28 = call noundef ptr %27(ptr noundef nonnull align 8 dereferenceable(193) %15)
  %29 = load ptr, ptr %7, align 8, !tbaa !10
  call void @_ZN6icu_7712LocalPointerINS_15ChineseCalendarEEC2EPS1_R10UErrorCode(ptr noundef nonnull align 8 dereferenceable(8) %8, ptr noundef %28, ptr noundef nonnull align 4 dereferenceable(4) %29)
  %30 = load ptr, ptr %7, align 8, !tbaa !10
  %31 = load i32, ptr %30, align 4, !tbaa !30
  %32 = invoke noundef signext i8 @_ZL9U_FAILURE10UErrorCode(i32 noundef %31)
          to label %33 unwind label %36

33:                                               ; preds = %24
  %34 = icmp ne i8 %32, 0
  br i1 %34, label %35, label %40

35:                                               ; preds = %33
  store i32 0, ptr %4, align 4
  store i32 1, ptr %11, align 4
  br label %90

36:                                               ; preds = %45, %43, %42, %40, %24
  %37 = landingpad { ptr, i32 }
          cleanup
  %38 = extractvalue { ptr, i32 } %37, 0
  store ptr %38, ptr %9, align 8
  %39 = extractvalue { ptr, i32 } %37, 1
  store i32 %39, ptr %10, align 4
  br label %91

40:                                               ; preds = %33
  %41 = invoke noundef ptr @_ZNK6icu_7716LocalPointerBaseINS_15ChineseCalendarEEptEv(ptr noundef nonnull align 8 dereferenceable(8) %8)
          to label %42 unwind label %36

42:                                               ; preds = %40
  invoke void @_ZN6icu_778Calendar10setLenientEa(ptr noundef nonnull align 8 dereferenceable(192) %41, i8 noundef signext 1)
          to label %43 unwind label %36

43:                                               ; preds = %42
  %44 = invoke noundef ptr @_ZNK6icu_7716LocalPointerBaseINS_15ChineseCalendarEEptEv(ptr noundef nonnull align 8 dereferenceable(8) %8)
          to label %45 unwind label %36

45:                                               ; preds = %43
  %46 = load i32, ptr %6, align 4, !tbaa !25
  %47 = load ptr, ptr %7, align 8, !tbaa !10
  %48 = load ptr, ptr %44, align 8, !tbaa !11
  %49 = getelementptr inbounds ptr, ptr %48, i64 36
  %50 = load ptr, ptr %49, align 8
  invoke void %50(ptr noundef nonnull align 8 dereferenceable(192) %44, i32 noundef %46, i8 noundef signext 0, ptr noundef nonnull align 4 dereferenceable(4) %47)
          to label %51 unwind label %36

51:                                               ; preds = %45
  call void @llvm.lifetime.start.p0(i64 4, ptr %12) #13
  %52 = invoke noundef ptr @_ZNK6icu_7716LocalPointerBaseINS_15ChineseCalendarEEptEv(ptr noundef nonnull align 8 dereferenceable(8) %8)
          to label %53 unwind label %76

53:                                               ; preds = %51
  %54 = load ptr, ptr %7, align 8, !tbaa !10
  %55 = invoke noundef i32 @_ZNK6icu_778Calendar3getE19UCalendarDateFieldsR10UErrorCode(ptr noundef nonnull align 8 dereferenceable(192) %52, i32 noundef 19, ptr noundef nonnull align 4 dereferenceable(4) %54)
          to label %56 unwind label %76

56:                                               ; preds = %53
  store i32 %55, ptr %12, align 4, !tbaa !29
  call void @llvm.lifetime.start.p0(i64 4, ptr %13) #13
  %57 = invoke noundef ptr @_ZNK6icu_7716LocalPointerBaseINS_15ChineseCalendarEEptEv(ptr noundef nonnull align 8 dereferenceable(8) %8)
          to label %58 unwind label %80

58:                                               ; preds = %56
  %59 = load ptr, ptr %7, align 8, !tbaa !10
  %60 = invoke noundef i32 @_ZNK6icu_778Calendar3getE19UCalendarDateFieldsR10UErrorCode(ptr noundef nonnull align 8 dereferenceable(192) %57, i32 noundef 2, ptr noundef nonnull align 4 dereferenceable(4) %59)
          to label %61 unwind label %80

61:                                               ; preds = %58
  store i32 %60, ptr %13, align 4, !tbaa !29
  call void @llvm.lifetime.start.p0(i64 1, ptr %14) #13
  %62 = invoke noundef ptr @_ZNK6icu_7716LocalPointerBaseINS_15ChineseCalendarEEptEv(ptr noundef nonnull align 8 dereferenceable(8) %8)
          to label %63 unwind label %84

63:                                               ; preds = %61
  %64 = load ptr, ptr %7, align 8, !tbaa !10
  %65 = invoke noundef i32 @_ZNK6icu_778Calendar3getE19UCalendarDateFieldsR10UErrorCode(ptr noundef nonnull align 8 dereferenceable(192) %62, i32 noundef 22, ptr noundef nonnull align 4 dereferenceable(4) %64)
          to label %66 unwind label %84

66:                                               ; preds = %63
  %67 = icmp ne i32 %65, 0
  %68 = zext i1 %67 to i8
  store i8 %68, ptr %14, align 1, !tbaa !39
  %69 = load i32, ptr %12, align 4, !tbaa !29
  %70 = load i32, ptr %13, align 4, !tbaa !29
  %71 = load i8, ptr %14, align 1, !tbaa !39, !range !40, !noundef !41
  %72 = trunc i8 %71 to i1
  %73 = load ptr, ptr %7, align 8, !tbaa !10
  %74 = invoke noundef i32 @_ZNK6icu_7715ChineseCalendar28handleGetMonthLengthWithLeapEiibR10UErrorCode(ptr noundef nonnull align 8 dereferenceable(193) %15, i32 noundef %69, i32 noundef %70, i1 noundef zeroext %72, ptr noundef nonnull align 4 dereferenceable(4) %73)
          to label %75 unwind label %84

75:                                               ; preds = %66
  store i32 %74, ptr %4, align 4
  store i32 1, ptr %11, align 4
  call void @llvm.lifetime.end.p0(i64 1, ptr %14) #13
  call void @llvm.lifetime.end.p0(i64 4, ptr %13) #13
  call void @llvm.lifetime.end.p0(i64 4, ptr %12) #13
  br label %90

76:                                               ; preds = %53, %51
  %77 = landingpad { ptr, i32 }
          cleanup
  %78 = extractvalue { ptr, i32 } %77, 0
  store ptr %78, ptr %9, align 8
  %79 = extractvalue { ptr, i32 } %77, 1
  store i32 %79, ptr %10, align 4
  br label %89

80:                                               ; preds = %58, %56
  %81 = landingpad { ptr, i32 }
          cleanup
  %82 = extractvalue { ptr, i32 } %81, 0
  store ptr %82, ptr %9, align 8
  %83 = extractvalue { ptr, i32 } %81, 1
  store i32 %83, ptr %10, align 4
  br label %88

84:                                               ; preds = %66, %63, %61
  %85 = landingpad { ptr, i32 }
          cleanup
  %86 = extractvalue { ptr, i32 } %85, 0
  store ptr %86, ptr %9, align 8
  %87 = extractvalue { ptr, i32 } %85, 1
  store i32 %87, ptr %10, align 4
  call void @llvm.lifetime.end.p0(i64 1, ptr %14) #13
  br label %88

88:                                               ; preds = %84, %80
  call void @llvm.lifetime.end.p0(i64 4, ptr %13) #13
  br label %89

89:                                               ; preds = %88, %76
  call void @llvm.lifetime.end.p0(i64 4, ptr %12) #13
  br label %91

90:                                               ; preds = %75, %35
  call void @_ZN6icu_7712LocalPointerINS_15ChineseCalendarEED2Ev(ptr noundef nonnull align 8 dereferenceable(8) %8) #13
  call void @llvm.lifetime.end.p0(i64 8, ptr %8) #13
  br label %96

91:                                               ; preds = %89, %36
  call void @_ZN6icu_7712LocalPointerINS_15ChineseCalendarEED2Ev(ptr noundef nonnull align 8 dereferenceable(8) %8) #13
  call void @llvm.lifetime.end.p0(i64 8, ptr %8) #13
  br label %98

92:                                               ; preds = %21
  %93 = load i32, ptr %6, align 4, !tbaa !25
  %94 = load ptr, ptr %7, align 8, !tbaa !10
  %95 = call noundef i32 @_ZNK6icu_778Calendar16getActualMaximumE19UCalendarDateFieldsR10UErrorCode(ptr noundef nonnull align 8 dereferenceable(192) %15, i32 noundef %93, ptr noundef nonnull align 4 dereferenceable(4) %94)
  store i32 %95, ptr %4, align 4
  br label %96

96:                                               ; preds = %92, %90, %20
  %97 = load i32, ptr %4, align 4
  ret i32 %97

98:                                               ; preds = %91
  %99 = load ptr, ptr %9, align 8
  %100 = load i32, ptr %10, align 4
  %101 = insertvalue { ptr, i32 } poison, ptr %99, 0
  %102 = insertvalue { ptr, i32 } %101, i32 %100, 1
  resume { ptr, i32 } %102
}