; Function Attrs: mustprogress uwtable
define noundef i32 @_ZNK6icu_7715ChineseCalendar16getActualMaximumE19UCalendarDateFieldsR10UErrorCode(ptr noundef nonnull align 8 dereferenceable(193) %0, i32 noundef %1, ptr noundef nonnull align 4 dereferenceable(4) %2) unnamed_addr #0 align 2 personality ptr @__gxx_personality_v0 {
  %4 = alloca %"struct.icu_77::ChineseCalendar::Setting", align 8
  %5 = load i32, ptr %2, align 4, !tbaa !21
  %6 = icmp slt i32 %5, 1
  br i1 %6, label %7, label %_ZN6icu_7712LocalPointerINS_15ChineseCalendarEED2Ev.exit

7:                                                ; preds = %3
  %8 = icmp eq i32 %1, 5
  br i1 %8, label %9, label %65

9:                                                ; preds = %7
  %10 = load ptr, ptr %0, align 8, !tbaa !3
  %11 = getelementptr inbounds nuw i8, ptr %10, i64 24
  %12 = load ptr, ptr %11, align 8
  %13 = tail call noundef ptr %12(ptr noundef nonnull align 8 dereferenceable(193) %0)
  %14 = icmp ne ptr %13, null
  %15 = load i32, ptr %2, align 4
  %16 = icmp sgt i32 %15, 0
  %or.cond.i = select i1 %14, i1 true, i1 %16
  br i1 %or.cond.i, label %_ZN6icu_7712LocalPointerINS_15ChineseCalendarEEC2EPS1_R10UErrorCode.exit, label %_ZN6icu_7712LocalPointerINS_15ChineseCalendarEEC2EPS1_R10UErrorCode.exit.thread

_ZN6icu_7712LocalPointerINS_15ChineseCalendarEEC2EPS1_R10UErrorCode.exit: ; preds = %9
  %17 = icmp slt i32 %15, 1
  br i1 %17, label %20, label %56

_ZN6icu_7712LocalPointerINS_15ChineseCalendarEEC2EPS1_R10UErrorCode.exit.thread: ; preds = %9
  store i32 7, ptr %2, align 4, !tbaa !21
  br label %_ZN6icu_7712LocalPointerINS_15ChineseCalendarEED2Ev.exit

18:                                               ; preds = %21, %20
  %19 = landingpad { ptr, i32 }
          cleanup
  br label %_ZN6icu_7712LocalPointerINS_15ChineseCalendarEED2Ev.exit31

20:                                               ; preds = %_ZN6icu_7712LocalPointerINS_15ChineseCalendarEEC2EPS1_R10UErrorCode.exit
  invoke void @_ZN6icu_778Calendar10setLenientEa(ptr noundef nonnull align 8 dereferenceable(192) %13, i8 noundef signext 1)
          to label %21 unwind label %18

21:                                               ; preds = %20
  %22 = load ptr, ptr %13, align 8, !tbaa !3
  %23 = getelementptr inbounds nuw i8, ptr %22, i64 288
  %24 = load ptr, ptr %23, align 8
  invoke void %24(ptr noundef nonnull align 8 dereferenceable(192) %13, i32 noundef 5, i8 noundef signext 0, ptr noundef nonnull align 4 dereferenceable(4) %2)
          to label %25 unwind label %18

25:                                               ; preds = %21
  %26 = invoke noundef i32 @_ZNK6icu_778Calendar3getE19UCalendarDateFieldsR10UErrorCode(ptr noundef nonnull align 8 dereferenceable(192) %13, i32 noundef 19, ptr noundef nonnull align 4 dereferenceable(4) %2)
          to label %27 unwind label %50

27:                                               ; preds = %25
  %28 = invoke noundef i32 @_ZNK6icu_778Calendar3getE19UCalendarDateFieldsR10UErrorCode(ptr noundef nonnull align 8 dereferenceable(192) %13, i32 noundef 2, ptr noundef nonnull align 4 dereferenceable(4) %2)
          to label %29 unwind label %52

29:                                               ; preds = %27
  %30 = invoke noundef i32 @_ZNK6icu_778Calendar3getE19UCalendarDateFieldsR10UErrorCode(ptr noundef nonnull align 8 dereferenceable(192) %13, i32 noundef 22, ptr noundef nonnull align 4 dereferenceable(4) %2)
          to label %31 unwind label %54

31:                                               ; preds = %29
  %32 = icmp ne i32 %30, 0
  call void @llvm.lifetime.start.p0(i64 32, ptr nonnull %4) #8
  %33 = load ptr, ptr %0, align 8, !tbaa !3
  %34 = getelementptr inbounds nuw i8, ptr %33, i64 456
  %35 = load ptr, ptr %34, align 8
  invoke void %35(ptr dead_on_unwind nonnull writable sret(%"struct.icu_77::ChineseCalendar::Setting") align 8 %4, ptr noundef nonnull align 8 dereferenceable(193) %0, ptr noundef nonnull align 4 dereferenceable(4) %2)
          to label %.noexc unwind label %54

.noexc:                                           ; preds = %31
  %36 = load i32, ptr %2, align 4, !tbaa !21
  %37 = icmp slt i32 %36, 1
  br i1 %37, label %38, label %.thread

38:                                               ; preds = %.noexc
  %39 = invoke noundef i64 @_ZNK6icu_7715ChineseCalendar31handleComputeMonthStartWithLeapEiibR10UErrorCode(ptr noundef nonnull align 8 dereferenceable(193) %0, i32 noundef %26, i32 noundef %28, i1 noundef zeroext %32, ptr noundef nonnull align 4 dereferenceable(4) %2)
          to label %.noexc29 unwind label %54

.noexc29:                                         ; preds = %38
  %40 = load i32, ptr %2, align 4, !tbaa !21
  %41 = icmp slt i32 %40, 1
  br i1 %41, label %42, label %.thread

42:                                               ; preds = %.noexc29
  %43 = trunc nsw i64 %39 to i32
  %44 = getelementptr inbounds nuw i8, ptr %4, i64 8
  %45 = load ptr, ptr %44, align 8, !tbaa !28
  %46 = add nsw i32 %43, -2440562
  %47 = sitofp i32 %46 to double
  %48 = invoke fastcc noundef i32 @_ZN6icu_7712_GLOBAL__N_111newMoonNearEPKNS_8TimeZoneEdaR10UErrorCode(ptr noundef %45, double noundef %47, i8 noundef signext 1, ptr noundef nonnull align 4 dereferenceable(4) %2)
          to label %.noexc30 unwind label %54

.noexc30:                                         ; preds = %42
  %reass.sub = sub i32 %48, %43
  %49 = add i32 %reass.sub, 2440587
  br label %.thread

.thread:                                          ; preds = %.noexc30, %.noexc29, %.noexc
  %.0.i = phi i32 [ 0, %.noexc ], [ %49, %.noexc30 ], [ 0, %.noexc29 ]
  call void @llvm.lifetime.end.p0(i64 32, ptr nonnull %4) #8
  br label %58

50:                                               ; preds = %25
  %51 = landingpad { ptr, i32 }
          cleanup
  br label %_ZN6icu_7712LocalPointerINS_15ChineseCalendarEED2Ev.exit31

52:                                               ; preds = %27
  %53 = landingpad { ptr, i32 }
          cleanup
  br label %_ZN6icu_7712LocalPointerINS_15ChineseCalendarEED2Ev.exit31

54:                                               ; preds = %42, %38, %31, %29
  %55 = landingpad { ptr, i32 }
          cleanup
  br label %_ZN6icu_7712LocalPointerINS_15ChineseCalendarEED2Ev.exit31

56:                                               ; preds = %_ZN6icu_7712LocalPointerINS_15ChineseCalendarEEC2EPS1_R10UErrorCode.exit
  %57 = icmp eq ptr %13, null
  br i1 %57, label %_ZN6icu_7712LocalPointerINS_15ChineseCalendarEED2Ev.exit, label %58

58:                                               ; preds = %.thread, %56
  %.139 = phi i32 [ %.0.i, %.thread ], [ 0, %56 ]
  %59 = load ptr, ptr %13, align 8, !tbaa !3
  %60 = getelementptr inbounds nuw i8, ptr %59, i64 8
  %61 = load ptr, ptr %60, align 8
  call void %61(ptr noundef nonnull align 8 dereferenceable(193) %13) #8
  br label %_ZN6icu_7712LocalPointerINS_15ChineseCalendarEED2Ev.exit

_ZN6icu_7712LocalPointerINS_15ChineseCalendarEED2Ev.exit31: ; preds = %50, %54, %52, %18
  %.pn.pn.pn = phi { ptr, i32 } [ %19, %18 ], [ %51, %50 ], [ %55, %54 ], [ %53, %52 ]
  %62 = load ptr, ptr %13, align 8, !tbaa !3
  %63 = getelementptr inbounds nuw i8, ptr %62, i64 8
  %64 = load ptr, ptr %63, align 8
  call void %64(ptr noundef nonnull align 8 dereferenceable(193) %13) #8
  resume { ptr, i32 } %.pn.pn.pn

65:                                               ; preds = %7
  %66 = tail call noundef i32 @_ZNK6icu_778Calendar16getActualMaximumE19UCalendarDateFieldsR10UErrorCode(ptr noundef nonnull align 8 dereferenceable(192) %0, i32 noundef %1, ptr noundef nonnull align 4 dereferenceable(4) %2)
  br label %_ZN6icu_7712LocalPointerINS_15ChineseCalendarEED2Ev.exit

_ZN6icu_7712LocalPointerINS_15ChineseCalendarEED2Ev.exit: ; preds = %_ZN6icu_7712LocalPointerINS_15ChineseCalendarEEC2EPS1_R10UErrorCode.exit.thread, %58, %56, %3, %65
  %.0 = phi i32 [ %66, %65 ], [ 0, %3 ], [ 0, %56 ], [ %.139, %58 ], [ 0, %_ZN6icu_7712LocalPointerINS_15ChineseCalendarEEC2EPS1_R10UErrorCode.exit.thread ]
  ret i32 %.0
}